target datalayout = "e-m:e-p270:32:32-p271:32:32-p272:64:64-i64:64-i128:128-f80:128-n8:16:32:64-S128"
target triple = "x86_64-pc-linux-gnu"

%struct.expert_field = type { i32, i32 }

@hf_ldp_tlv_upstr_ass_lbl = internal global i32 0, align 4
@.str.581 = private unnamed_addr constant [24 x i8] c"Upstream-Assigned Label\00", align 1
@hf_ldp_tlv_upstr_lbl_resvbit = internal global i32 0, align 4
@hf_ldp_tlv_inv_length = internal global i32 0, align 4
@ett_ldp_tlv_val = internal global i32 0, align 4
@ei_ldp_inv_length = internal global %struct.expert_field zeroinitializer, align 4

; Function Attrs: null_pointer_is_valid sspstrong uwtable
define internal void @dissect_tlv_upstrm_ass_lbl(ptr noundef %0, ptr noundef %1, i32 noundef %2, ptr noundef %3, i32 noundef %4) #0 {
  %6 = alloca ptr, align 8
  %7 = alloca ptr, align 8
  %8 = alloca i32, align 4
  %9 = alloca ptr, align 8
  %10 = alloca i32, align 4
  %11 = alloca ptr, align 8
  %12 = alloca ptr, align 8
  %13 = alloca i32, align 4
  store ptr %0, ptr %6, align 8
  store ptr %1, ptr %7, align 8
  store i32 %2, ptr %8, align 4
  store ptr %3, ptr %9, align 8
  store i32 %4, ptr %10, align 4
  call void @llvm.lifetime.start.p0(i64 8, ptr %11) #7
  %14 = load i32, ptr %10, align 4
  %15 = icmp ne i32 %14, 8
  br i1 %15, label %16, label %26

16:                                               ; preds = %5
  call void @llvm.lifetime.start.p0(i64 8, ptr %12) #7
  %17 = load ptr, ptr %9, align 8
  %18 = load i32, ptr @hf_ldp_tlv_inv_length, align 4
  %19 = load ptr, ptr %6, align 8
  %20 = load i32, ptr %8, align 4
  %21 = load i32, ptr %10, align 4
  %22 = call ptr @proto_tree_add_item(ptr noundef %17, i32 noundef %18, ptr noundef %19, i32 noundef %20, i32 noundef %21, i32 noundef 0)
  store ptr %22, ptr %12, align 8
  %23 = load ptr, ptr %7, align 8
  %24 = load ptr, ptr %12, align 8
  %25 = call ptr @expert_add_info(ptr noundef %23, ptr noundef %24, ptr noundef @ei_ldp_inv_length)
  store i32 1, ptr %13, align 4
  call void @llvm.lifetime.end.p0(i64 8, ptr %12) #7
  br label %44

26:                                               ; preds = %5
  %27 = load ptr, ptr %9, align 8
  %28 = load ptr, ptr %6, align 8
  %29 = load i32, ptr %8, align 4
  %30 = load i32, ptr %10, align 4
  %31 = load i32, ptr @ett_ldp_tlv_val, align 4
  %32 = call ptr @proto_tree_add_subtree(ptr noundef %27, ptr noundef %28, i32 noundef %29, i32 noundef %30, i32 noundef %31, ptr noundef null, ptr noundef @.str.581)
  store ptr %32, ptr %11, align 8
  %33 = load ptr, ptr %11, align 8
  %34 = load i32, ptr @hf_ldp_tlv_upstr_lbl_resvbit, align 4
  %35 = load ptr, ptr %6, align 8
  %36 = load i32, ptr %8, align 4
  %37 = call ptr @proto_tree_add_item(ptr noundef %33, i32 noundef %34, ptr noundef %35, i32 noundef %36, i32 noundef 4, i32 noundef 0)
  %38 = load ptr, ptr %11, align 8
  %39 = load i32, ptr @hf_ldp_tlv_upstr_ass_lbl, align 4
  %40 = load ptr, ptr %6, align 8
  %41 = load i32, ptr %8, align 4
  %42 = add i32 %41, 4
  %43 = call ptr @proto_tree_add_item(ptr noundef %38, i32 noundef %39, ptr noundef %40, i32 noundef %42, i32 noundef 4, i32 noundef 0)
  store i32 0, ptr %13, align 4
  br label %44

44:                                               ; preds = %26, %16
  call void @llvm.lifetime.end.p0(i64 8, ptr %11) #7
  %45 = load i32, ptr %13, align 4
  switch i32 %45, label %47 [
    i32 0, label %46
    i32 1, label %46
  ]

46:                                               ; preds = %44, %44
  ret void

47:                                               ; preds = %44
  unreachable
}