; Function Attrs: null_pointer_is_valid sspstrong uwtable
define internal fastcc void @dissect_tlv_upstrm_ass_lbl(ptr noundef %0, ptr noundef %1, i32 noundef %2, ptr noundef %3, i32 noundef range(i32 0, 2147483644) %4) unnamed_addr #0 {
  %.not = icmp eq i32 %4, 8
  br i1 %.not, label %10, label %6

6:                                                ; preds = %5
  %7 = load i32, ptr @hf_ldp_tlv_inv_length, align 4
  %8 = tail call ptr @proto_tree_add_item(ptr noundef %3, i32 noundef %7, ptr noundef %0, i32 noundef %2, i32 noundef %4, i32 noundef 0)
  %9 = tail call ptr @expert_add_info(ptr noundef %1, ptr noundef %8, ptr noundef nonnull @ei_ldp_inv_length)
  br label %18

10:                                               ; preds = %5
  %11 = load i32, ptr @ett_ldp_tlv_val, align 4
  %12 = tail call ptr @proto_tree_add_subtree(ptr noundef %3, ptr noundef %0, i32 noundef %2, i32 noundef 8, i32 noundef %11, ptr noundef null, ptr noundef nonnull @.str.581)
  %13 = load i32, ptr @hf_ldp_tlv_upstr_lbl_resvbit, align 4
  %14 = tail call ptr @proto_tree_add_item(ptr noundef %12, i32 noundef %13, ptr noundef %0, i32 noundef %2, i32 noundef 4, i32 noundef 0)
  %15 = load i32, ptr @hf_ldp_tlv_upstr_ass_lbl, align 4
  %16 = add i32 %2, 4
  %17 = tail call ptr @proto_tree_add_item(ptr noundef %12, i32 noundef %15, ptr noundef %0, i32 noundef %16, i32 noundef 4, i32 noundef 0)
  br label %18

18:                                               ; preds = %10, %6
  ret void
}